target datalayout = "e-m:e-p270:32:32-p271:32:32-p272:64:64-i64:64-i128:128-f80:128-n8:16:32:64-S128"
target triple = "x86_64-pc-linux-gnu"

; Function Attrs: nounwind uwtable
define dso_local i32 @get_be24(ptr noundef %0) #0 {
  %2 = alloca ptr, align 8
  store ptr %0, ptr %2, align 8, !tbaa !10
  %3 = load ptr, ptr %2, align 8, !tbaa !10
  %4 = getelementptr inbounds i8, ptr %3, i64 0
  %5 = load i8, ptr %4, align 1, !tbaa !19
  %6 = zext i8 %5 to i32
  %7 = shl i32 %6, 16
  %8 = load ptr, ptr %2, align 8, !tbaa !10
  %9 = getelementptr inbounds i8, ptr %8, i64 1
  %10 = load i8, ptr %9, align 1, !tbaa !19
  %11 = zext i8 %10 to i32
  %12 = shl i32 %11, 8
  %13 = or i32 %7, %12
  %14 = load ptr, ptr %2, align 8, !tbaa !10
  %15 = getelementptr inbounds i8, ptr %14, i64 2
  %16 = load i8, ptr %15, align 1, !tbaa !19
  %17 = zext i8 %16 to i32
  %18 = or i32 %13, %17
  ret i32 %18
}