; Function Attrs: mustprogress nofree norecurse nosync nounwind willreturn memory(argmem: read) uwtable
define dso_local range(i32 0, 16777216) i32 @get_be24(ptr noundef readonly captures(none) %0) local_unnamed_addr #12 {
  %2 = load i8, ptr %0, align 1, !tbaa !14
  %3 = zext i8 %2 to i32
  %4 = shl nuw nsw i32 %3, 16
  %5 = getelementptr inbounds nuw i8, ptr %0, i64 1
  %6 = load i8, ptr %5, align 1, !tbaa !14
  %7 = zext i8 %6 to i32
  %8 = shl nuw nsw i32 %7, 8
  %9 = or disjoint i32 %8, %4
  %10 = getelementptr inbounds nuw i8, ptr %0, i64 2
  %11 = load i8, ptr %10, align 1, !tbaa !14
  %12 = zext i8 %11 to i32
  %13 = or disjoint i32 %9, %12
  ret i32 %13
}